target datalayout = "e-m:e-p270:32:32-p271:32:32-p272:64:64-i64:64-i128:128-f80:128-n8:16:32:64-S128"
target triple = "x86_64-pc-linux-gnu"

@_ZTISt9exception = external constant ptr
@_ZN12_GLOBAL__N_112errorMessageE = internal global [1024 x i8] zeroinitializer, align 16

; Function Attrs: noinline noreturn nounwind uwtable
define linkonce_odr hidden void @__clang_call_terminate(ptr noundef %0) #11 comdat {
  %2 = call ptr @__cxa_begin_catch(ptr %0) #3
  call void @_ZSt9terminatev() #18
  unreachable
}

; Function Attrs: mustprogress nounwind uwtable
define internal void @_ZN12_GLOBAL__N_115setErrorMessageERKSt9exception(ptr noundef nonnull align 8 dereferenceable(8) %0) #4 {
  %2 = alloca ptr, align 8
  store ptr %0, ptr %2, align 8, !tbaa !23
  %3 = load ptr, ptr %2, align 8, !tbaa !23
  %4 = load ptr, ptr %3, align 8, !tbaa !30
  %5 = getelementptr inbounds ptr, ptr %4, i64 2
  %6 = load ptr, ptr %5, align 8
  %7 = call noundef ptr %6(ptr noundef nonnull align 8 dereferenceable(8) %3) #3
  %8 = call ptr @strncpy(ptr noundef @_ZN12_GLOBAL__N_112errorMessageE, ptr noundef %7, i64 noundef 1023) #3
  store i8 0, ptr getelementptr inbounds ([1024 x i8], ptr @_ZN12_GLOBAL__N_112errorMessageE, i64 0, i64 1023), align 1, !tbaa !32
  ret void
}

; Function Attrs: inlinehint mustprogress nounwind uwtable
define internal noundef ptr @_ZN12_GLOBAL__N_16headerEPK9ImfHeader(ptr noundef %0) #6 {
  %2 = alloca ptr, align 8
  store ptr %0, ptr %2, align 8, !tbaa !33
  %3 = load ptr, ptr %2, align 8, !tbaa !33
  ret ptr %3
}

; Function Attrs: mustprogress uwtable
define ptr @ImfOpenTiledOutputFile(ptr noundef %0, ptr noundef %1, i32 noundef %2, i32 noundef %3, i32 noundef %4, i32 noundef %5, i32 noundef %6) #7 personality ptr @__gxx_personality_v0 {
  %8 = alloca ptr, align 8
  %9 = alloca ptr, align 8
  %10 = alloca ptr, align 8
  %11 = alloca i32, align 4
  %12 = alloca i32, align 4
  %13 = alloca i32, align 4
  %14 = alloca i32, align 4
  %15 = alloca i32, align 4
  %16 = alloca ptr, align 8
  %17 = alloca i32, align 4
  %18 = alloca ptr, align 8
  store ptr %0, ptr %9, align 8, !tbaa !53
  store ptr %1, ptr %10, align 8, !tbaa !33
  store i32 %2, ptr %11, align 4, !tbaa !16
  store i32 %3, ptr %12, align 4, !tbaa !16
  store i32 %4, ptr %13, align 4, !tbaa !16
  store i32 %5, ptr %14, align 4, !tbaa !16
  store i32 %6, ptr %15, align 4, !tbaa !16
  %19 = invoke noalias noundef nonnull ptr @_Znwm(i64 noundef 24) #19
          to label %20 unwind label %33

20:                                               ; preds = %7
  %21 = load ptr, ptr %9, align 8, !tbaa !53
  %22 = load ptr, ptr %10, align 8, !tbaa !33
  %23 = invoke noundef ptr @_ZN12_GLOBAL__N_16headerEPK9ImfHeader(ptr noundef %22)
          to label %24 unwind label %37

24:                                               ; preds = %20
  %25 = load i32, ptr %11, align 4, !tbaa !16
  %26 = load i32, ptr %12, align 4, !tbaa !16
  %27 = load i32, ptr %13, align 4, !tbaa !16
  %28 = load i32, ptr %14, align 4, !tbaa !16
  %29 = load i32, ptr %15, align 4, !tbaa !16
  %30 = invoke noundef i32 @_ZN7Imf_3_417globalThreadCountEv()
          to label %31 unwind label %37

31:                                               ; preds = %24
  invoke void @_ZN7Imf_3_419TiledRgbaOutputFileC1EPKcRKNS_6HeaderENS_12RgbaChannelsEiiNS_9LevelModeENS_17LevelRoundingModeEi(ptr noundef nonnull align 8 dereferenceable(24) %19, ptr noundef %21, ptr noundef nonnull align 8 dereferenceable(49) %23, i32 noundef %25, i32 noundef %26, i32 noundef %27, i32 noundef %28, i32 noundef %29, i32 noundef %30)
          to label %32 unwind label %37

32:                                               ; preds = %31
  store ptr %19, ptr %8, align 8
  br label %56

33:                                               ; preds = %7
  %34 = landingpad { ptr, i32 }
          catch ptr @_ZTISt9exception
  %35 = extractvalue { ptr, i32 } %34, 0
  store ptr %35, ptr %16, align 8
  %36 = extractvalue { ptr, i32 } %34, 1
  store i32 %36, ptr %17, align 4
  br label %41

37:                                               ; preds = %31, %24, %20
  %38 = landingpad { ptr, i32 }
          cleanup
          catch ptr @_ZTISt9exception
  %39 = extractvalue { ptr, i32 } %38, 0
  store ptr %39, ptr %16, align 8
  %40 = extractvalue { ptr, i32 } %38, 1
  store i32 %40, ptr %17, align 4
  call void @_ZdlPvm(ptr noundef %19, i64 noundef 24) #20
  br label %41

41:                                               ; preds = %37, %33
  %42 = load i32, ptr %17, align 4
  %43 = call i32 @llvm.eh.typeid.for.p0(ptr @_ZTISt9exception) #3
  %44 = icmp eq i32 %42, %43
  br i1 %44, label %45, label %58

45:                                               ; preds = %41
  call void @llvm.lifetime.start.p0(i64 8, ptr %18) #3
  %46 = load ptr, ptr %16, align 8
  %47 = call ptr @__cxa_begin_catch(ptr %46) #3
  store ptr %47, ptr %18, align 8
  %48 = load ptr, ptr %18, align 8, !tbaa !23
  invoke void @_ZN12_GLOBAL__N_115setErrorMessageERKSt9exception(ptr noundef nonnull align 8 dereferenceable(8) %48)
          to label %49 unwind label %50

49:                                               ; preds = %45
  store ptr null, ptr %8, align 8
  call void @__cxa_end_catch()
  call void @llvm.lifetime.end.p0(i64 8, ptr %18) #3
  br label %56

50:                                               ; preds = %45
  %51 = landingpad { ptr, i32 }
          cleanup
  %52 = extractvalue { ptr, i32 } %51, 0
  store ptr %52, ptr %16, align 8
  %53 = extractvalue { ptr, i32 } %51, 1
  store i32 %53, ptr %17, align 4
  invoke void @__cxa_end_catch()
          to label %54 unwind label %63

54:                                               ; preds = %50
  call void @llvm.lifetime.end.p0(i64 8, ptr %18) #3
  br label %58

55:                                               ; No predecessors!
  unreachable

56:                                               ; preds = %49, %32
  %57 = load ptr, ptr %8, align 8
  ret ptr %57

58:                                               ; preds = %54, %41
  %59 = load ptr, ptr %16, align 8
  %60 = load i32, ptr %17, align 4
  %61 = insertvalue { ptr, i32 } poison, ptr %59, 0
  %62 = insertvalue { ptr, i32 } %61, i32 %60, 1
  resume { ptr, i32 } %62

63:                                               ; preds = %50
  %64 = landingpad { ptr, i32 }
          catch ptr null
  %65 = extractvalue { ptr, i32 } %64, 0
  call void @__clang_call_terminate(ptr %65) #18
  unreachable
}