; Function Attrs: mustprogress uwtable
define noundef ptr @ImfOpenTiledOutputFile(ptr noundef %0, ptr noundef %1, i32 noundef %2, i32 noundef %3, i32 noundef %4, i32 noundef %5, i32 noundef %6) local_unnamed_addr #8 personality ptr @__gxx_personality_v0 {
  %8 = invoke noalias noundef nonnull dereferenceable(24) ptr @_Znwm(i64 noundef 24) #23
          to label %9 unwind label %12

9:                                                ; preds = %7
  %10 = invoke noundef i32 @_ZN7Imf_3_417globalThreadCountEv()
          to label %11 unwind label %14

11:                                               ; preds = %9
  invoke void @_ZN7Imf_3_419TiledRgbaOutputFileC1EPKcRKNS_6HeaderENS_12RgbaChannelsEiiNS_9LevelModeENS_17LevelRoundingModeEi(ptr noundef nonnull align 8 dereferenceable(24) %8, ptr noundef %0, ptr noundef nonnull align 8 dereferenceable(49) %1, i32 noundef %2, i32 noundef %3, i32 noundef %4, i32 noundef %5, i32 noundef %6, i32 noundef %10)
          to label %26 unwind label %14

12:                                               ; preds = %7
  %13 = landingpad { ptr, i32 }
          catch ptr @_ZTISt9exception
  br label %16

14:                                               ; preds = %11, %9
  %15 = landingpad { ptr, i32 }
          cleanup
          catch ptr @_ZTISt9exception
  tail call void @_ZdlPvm(ptr noundef nonnull %8, i64 noundef 24) #25
  br label %16

16:                                               ; preds = %14, %12
  %.pn = phi { ptr, i32 } [ %15, %14 ], [ %13, %12 ]
  %.012 = extractvalue { ptr, i32 } %.pn, 1
  %17 = tail call i32 @llvm.eh.typeid.for.p0(ptr nonnull @_ZTISt9exception) #24
  %18 = icmp eq i32 %.012, %17
  br i1 %18, label %19, label %27

19:                                               ; preds = %16
  %.013 = extractvalue { ptr, i32 } %.pn, 0
  %20 = tail call ptr @__cxa_begin_catch(ptr %.013) #24
  %21 = load ptr, ptr %20, align 8, !tbaa !22
  %22 = getelementptr inbounds nuw i8, ptr %21, i64 16
  %23 = load ptr, ptr %22, align 8
  %24 = tail call noundef ptr %23(ptr noundef nonnull align 8 dereferenceable(8) %20) #24
  %25 = tail call ptr @strncpy(ptr noundef nonnull dereferenceable(1) @_ZN12_GLOBAL__N_112errorMessageE, ptr noundef nonnull dereferenceable(1) %24, i64 noundef 1023) #24
  store i8 0, ptr getelementptr inbounds nuw (i8, ptr @_ZN12_GLOBAL__N_112errorMessageE, i64 1023), align 1, !tbaa !15
  tail call void @__cxa_end_catch()
  br label %26

26:                                               ; preds = %11, %19
  %.0 = phi ptr [ null, %19 ], [ %8, %11 ]
  ret ptr %.0

27:                                               ; preds = %16
  resume { ptr, i32 } %.pn
}